target datalayout = "e-m:e-p270:32:32-p271:32:32-p272:64:64-i64:64-i128:128-f80:128-n8:16:32:64-S128"
target triple = "x86_64-pc-linux-gnu"

%struct.ssl_connection_st = type { %struct.ssl_st, ptr, i32, ptr, ptr, ptr, i32, ptr, i32, i32, i32, i32, %struct.OSSL_TIME, %struct.OSSL_TIME, %struct.ossl_statem_st, i32, ptr, ptr, i64, i64, i64, %struct.ossl_quic_tls_callbacks_st, ptr, ptr, %struct.anon, ptr, ptr, ptr, i32, ptr, %struct.ssl_dane_st, ptr, ptr, ptr, ptr, i32, [64 x i8], [64 x i8], [64 x i8], [64 x i8], [64 x i8], [64 x i8], [64 x i8], [64 x i8], [64 x i8], [64 x i8], [64 x i8], [64 x i8], ptr, [64 x i8], i64, i32, i64, [32 x i8], ptr, ptr, ptr, i64, ptr, [32 x i8], i64, i32, ptr, ptr, i32, i32, ptr, ptr, ptr, ptr, ptr, i64, ptr, ptr, i64, i32, i32, i32, i64, i32, i32, i64, i64, i64, %struct.anon.1, ptr, i32, ptr, ptr, ptr, i32, ptr, ptr, ptr, i32, i32, i32, i32, ptr, i64, i32, ptr, %struct.srp_ctx_st, ptr, %struct.record_layer_st, ptr, ptr, ptr, ptr, i64, i32, i32, i32, i64, i64, i64, ptr, ptr, ptr, ptr, ptr, i64, ptr, i64, ptr, i64 }
%struct.ssl_st = type { i32, ptr, ptr, ptr, %struct.CRYPTO_REF_COUNT, ptr, %struct.crypto_ex_data_st }
%struct.CRYPTO_REF_COUNT = type { i32 }
%struct.crypto_ex_data_st = type { ptr, ptr }
%struct.OSSL_TIME = type { i64 }
%struct.ossl_statem_st = type { i32, i32, i32, i32, i32, i32, i32, i32, i32, i32, i32, i32, i32, ptr, ptr, ptr, i8 }
%struct.ossl_quic_tls_callbacks_st = type { ptr, ptr, ptr, ptr, ptr, ptr }
%struct.anon = type { i64, [32 x i8], [32 x i8], ptr, ptr, i32, i32, i32, i32, [2 x i8], i32, i32, i32, i32, %struct.anon.0, [64 x i8], i64, [64 x i8], i64, i32, i32, ptr, i64, ptr, i64, i32, i8, i8, i16, ptr, i16 }
%struct.anon.0 = type { [128 x i8], i64, [128 x i8], i64, i64, i32, ptr, ptr, [4 x ptr], [4 x i16], i64, i32, ptr, i64, ptr, i64, ptr, ptr, ptr, i32, i64, ptr, i32, ptr, i64, ptr, i64, ptr, i64, ptr, ptr, ptr, ptr, i64, i64, ptr, ptr, i32, i32, i32, i32 }
%struct.ssl_dane_st = type { ptr, ptr, ptr, ptr, ptr, i32, i32, i32, i64 }
%struct.anon.1 = type { [29 x i8], ptr, ptr, ptr, i32, ptr, i16, i32, %struct.anon.2, i32, i32, i64, ptr, i64, ptr, i64, ptr, i64, ptr, i64, ptr, i64, ptr, ptr, ptr, ptr, ptr, ptr, ptr, i64, ptr, i64, i32, i32, i32, i32, ptr, i64, i32, i8, i32, [4 x i32], i32, i8, i8, i8, i8 }
%struct.anon.2 = type { ptr, ptr, ptr, i64 }
%struct.srp_ctx_st = type { ptr, ptr, ptr, ptr, ptr, ptr, ptr, ptr, ptr, ptr, ptr, ptr, ptr, ptr, i32, i64 }
%struct.record_layer_st = type { ptr, ptr, ptr, ptr, ptr, ptr, ptr, ptr, i64, i32, i64, [4 x i8], i64, i64, i8, ptr, i32, ptr, ptr, ptr, i64, i64, i64, i64, [32 x %struct.tls_record_st] }
%struct.tls_record_st = type { ptr, i32, i8, ptr, ptr, i64, i64, i16, [8 x i8] }
%struct.tls_group_info_st = type { ptr, ptr, ptr, i32, i16, i32, i32, i32, i32, i8 }
%struct.ssl_ctx_st = type { ptr, ptr, ptr, ptr, ptr, ptr, ptr, i64, ptr, ptr, i32, %struct.OSSL_TIME, ptr, ptr, ptr, %struct.anon.4, %struct.CRYPTO_REF_COUNT, ptr, ptr, ptr, ptr, ptr, ptr, ptr, ptr, ptr, %struct.crypto_ex_data_st, ptr, ptr, ptr, ptr, ptr, ptr, ptr, i64, i32, i32, i32, i64, ptr, ptr, i32, ptr, ptr, i32, i64, [32 x i8], ptr, ptr, ptr, i32, ptr, ptr, ptr, i64, i64, i64, i64, ptr, ptr, ptr, ptr, ptr, %struct.anon.5, ptr, ptr, ptr, ptr, %struct.srp_ctx_st, %struct.dane_ctx_st, ptr, ptr, ptr, ptr, i32, i32, ptr, ptr, i64, i64, ptr, ptr, ptr, i64, ptr, ptr, i32, ptr, ptr, ptr, [14 x i32], [24 x ptr], [14 x ptr], [14 x i64], i64, ptr, ptr, ptr, i64, i64, ptr, i64, i64, i32, i32, i32, i32, ptr, i64, ptr, i64, i64, ptr, ptr }
%struct.anon.4 = type { i32, i32, i32, i32, i32, i32, i32, i32, i32, i32, i32 }
%struct.anon.5 = type { ptr, ptr, [16 x i8], ptr, ptr, ptr, ptr, ptr, i32, i8, i64, ptr, i64, ptr, i64, ptr, i64, ptr, ptr, i64, ptr, ptr, ptr, i64, ptr, ptr, ptr, ptr, [32 x i8] }
%struct.dane_ctx_st = type { ptr, ptr, i8, i64 }

@.str.2 = private unnamed_addr constant [24 x i8] c"../openssl/ssl/s3_lib.c\00", align 1
@__func__.ssl_generate_pkey_group = private unnamed_addr constant [24 x i8] c"ssl_generate_pkey_group\00", align 1

; Function Attrs: nounwind uwtable
define ptr @ssl_generate_pkey_group(ptr noundef %0, i16 noundef zeroext %1) #0 {
  %3 = alloca ptr, align 8
  %4 = alloca i16, align 2
  %5 = alloca ptr, align 8
  %6 = alloca ptr, align 8
  %7 = alloca ptr, align 8
  %8 = alloca ptr, align 8
  store ptr %0, ptr %3, align 8, !tbaa !13
  store i16 %1, ptr %4, align 2, !tbaa !141
  call void @llvm.lifetime.start.p0(i64 8, ptr %5) #10
  %9 = load ptr, ptr %3, align 8, !tbaa !13
  %10 = getelementptr inbounds nuw %struct.ssl_connection_st, ptr %9, i32 0, i32 0
  %11 = getelementptr inbounds nuw %struct.ssl_st, ptr %10, i32 0, i32 1
  %12 = load ptr, ptr %11, align 8, !tbaa !240
  store ptr %12, ptr %5, align 8, !tbaa !176
  call void @llvm.lifetime.start.p0(i64 8, ptr %6) #10
  %13 = load ptr, ptr %5, align 8, !tbaa !176
  %14 = load i16, ptr %4, align 2, !tbaa !141
  %15 = call ptr @tls1_group_id_lookup(ptr noundef %13, i16 noundef zeroext %14)
  store ptr %15, ptr %6, align 8, !tbaa !142
  call void @llvm.lifetime.start.p0(i64 8, ptr %7) #10
  store ptr null, ptr %7, align 8, !tbaa !260
  call void @llvm.lifetime.start.p0(i64 8, ptr %8) #10
  store ptr null, ptr %8, align 8, !tbaa !87
  %16 = load ptr, ptr %6, align 8, !tbaa !142
  %17 = icmp eq ptr %16, null
  br i1 %17, label %18, label %20

18:                                               ; preds = %2
  call void @ERR_new()
  call void @ERR_set_debug(ptr noundef @.str.2, i32 noundef 4912, ptr noundef @__func__.ssl_generate_pkey_group)
  %19 = load ptr, ptr %3, align 8, !tbaa !13
  call void (ptr, i32, i32, ptr, ...) @ossl_statem_fatal(ptr noundef %19, i32 noundef 80, i32 noundef 786691, ptr noundef null)
  br label %58

20:                                               ; preds = %2
  %21 = load ptr, ptr %5, align 8, !tbaa !176
  %22 = getelementptr inbounds nuw %struct.ssl_ctx_st, ptr %21, i32 0, i32 0
  %23 = load ptr, ptr %22, align 8, !tbaa !257
  %24 = load ptr, ptr %6, align 8, !tbaa !142
  %25 = getelementptr inbounds nuw %struct.tls_group_info_st, ptr %24, i32 0, i32 2
  %26 = load ptr, ptr %25, align 8, !tbaa !263
  %27 = load ptr, ptr %5, align 8, !tbaa !176
  %28 = getelementptr inbounds nuw %struct.ssl_ctx_st, ptr %27, i32 0, i32 89
  %29 = load ptr, ptr %28, align 8, !tbaa !262
  %30 = call ptr @EVP_PKEY_CTX_new_from_name(ptr noundef %23, ptr noundef %26, ptr noundef %29)
  store ptr %30, ptr %7, align 8, !tbaa !260
  %31 = load ptr, ptr %7, align 8, !tbaa !260
  %32 = icmp eq ptr %31, null
  br i1 %32, label %33, label %35

33:                                               ; preds = %20
  call void @ERR_new()
  call void @ERR_set_debug(ptr noundef @.str.2, i32 noundef 4920, ptr noundef @__func__.ssl_generate_pkey_group)
  %34 = load ptr, ptr %3, align 8, !tbaa !13
  call void (ptr, i32, i32, ptr, ...) @ossl_statem_fatal(ptr noundef %34, i32 noundef 80, i32 noundef 524294, ptr noundef null)
  br label %58

35:                                               ; preds = %20
  %36 = load ptr, ptr %7, align 8, !tbaa !260
  %37 = call i32 @EVP_PKEY_keygen_init(ptr noundef %36)
  %38 = icmp sle i32 %37, 0
  br i1 %38, label %39, label %41

39:                                               ; preds = %35
  call void @ERR_new()
  call void @ERR_set_debug(ptr noundef @.str.2, i32 noundef 4924, ptr noundef @__func__.ssl_generate_pkey_group)
  %40 = load ptr, ptr %3, align 8, !tbaa !13
  call void (ptr, i32, i32, ptr, ...) @ossl_statem_fatal(ptr noundef %40, i32 noundef 80, i32 noundef 524294, ptr noundef null)
  br label %58

41:                                               ; preds = %35
  %42 = load ptr, ptr %7, align 8, !tbaa !260
  %43 = load ptr, ptr %6, align 8, !tbaa !142
  %44 = getelementptr inbounds nuw %struct.tls_group_info_st, ptr %43, i32 0, i32 1
  %45 = load ptr, ptr %44, align 8, !tbaa !264
  %46 = call i32 @EVP_PKEY_CTX_set_group_name(ptr noundef %42, ptr noundef %45)
  %47 = icmp sle i32 %46, 0
  br i1 %47, label %48, label %50

48:                                               ; preds = %41
  call void @ERR_new()
  call void @ERR_set_debug(ptr noundef @.str.2, i32 noundef 4928, ptr noundef @__func__.ssl_generate_pkey_group)
  %49 = load ptr, ptr %3, align 8, !tbaa !13
  call void (ptr, i32, i32, ptr, ...) @ossl_statem_fatal(ptr noundef %49, i32 noundef 80, i32 noundef 524294, ptr noundef null)
  br label %58

50:                                               ; preds = %41
  %51 = load ptr, ptr %7, align 8, !tbaa !260
  %52 = call i32 @EVP_PKEY_keygen(ptr noundef %51, ptr noundef %8)
  %53 = icmp sle i32 %52, 0
  br i1 %53, label %54, label %57

54:                                               ; preds = %50
  call void @ERR_new()
  call void @ERR_set_debug(ptr noundef @.str.2, i32 noundef 4932, ptr noundef @__func__.ssl_generate_pkey_group)
  %55 = load ptr, ptr %3, align 8, !tbaa !13
  call void (ptr, i32, i32, ptr, ...) @ossl_statem_fatal(ptr noundef %55, i32 noundef 80, i32 noundef 524294, ptr noundef null)
  %56 = load ptr, ptr %8, align 8, !tbaa !87
  call void @EVP_PKEY_free(ptr noundef %56)
  store ptr null, ptr %8, align 8, !tbaa !87
  br label %57

57:                                               ; preds = %54, %50
  br label %58

58:                                               ; preds = %57, %48, %39, %33, %18
  %59 = load ptr, ptr %7, align 8, !tbaa !260
  call void @EVP_PKEY_CTX_free(ptr noundef %59)
  %60 = load ptr, ptr %8, align 8, !tbaa !87
  call void @llvm.lifetime.end.p0(i64 8, ptr %8) #10
  call void @llvm.lifetime.end.p0(i64 8, ptr %7) #10
  call void @llvm.lifetime.end.p0(i64 8, ptr %6) #10
  call void @llvm.lifetime.end.p0(i64 8, ptr %5) #10
  ret ptr %60
}