; Function Attrs: nounwind uwtable
define ptr @ssl_generate_pkey_group(ptr noundef %0, i16 noundef zeroext %1) local_unnamed_addr #4 {
  %3 = alloca ptr, align 8
  %4 = getelementptr inbounds nuw i8, ptr %0, i64 8
  %5 = load ptr, ptr %4, align 8, !tbaa !222
  %6 = tail call ptr @tls1_group_id_lookup(ptr noundef %5, i16 noundef zeroext %1) #18
  call void @llvm.lifetime.start.p0(i64 8, ptr nonnull %3) #18
  store ptr null, ptr %3, align 8, !tbaa !77
  %7 = icmp eq ptr %6, null
  br i1 %7, label %8, label %9

8:                                                ; preds = %2
  tail call void @ERR_new() #18
  tail call void @ERR_set_debug(ptr noundef nonnull @.str.2, i32 noundef 4912, ptr noundef nonnull @__func__.ssl_generate_pkey_group) #18
  tail call void (ptr, i32, i32, ptr, ...) @ossl_statem_fatal(ptr noundef nonnull %0, i32 noundef 80, i32 noundef 786691, ptr noundef null) #18
  br label %33

9:                                                ; preds = %2
  %10 = load ptr, ptr %5, align 8, !tbaa !235
  %11 = getelementptr inbounds nuw i8, ptr %6, i64 16
  %12 = load ptr, ptr %11, align 8, !tbaa !240
  %13 = getelementptr inbounds nuw i8, ptr %5, i64 1152
  %14 = load ptr, ptr %13, align 8, !tbaa !239
  %15 = tail call ptr @EVP_PKEY_CTX_new_from_name(ptr noundef %10, ptr noundef %12, ptr noundef %14) #18
  %16 = icmp eq ptr %15, null
  br i1 %16, label %17, label %18

17:                                               ; preds = %9
  tail call void @ERR_new() #18
  tail call void @ERR_set_debug(ptr noundef nonnull @.str.2, i32 noundef 4920, ptr noundef nonnull @__func__.ssl_generate_pkey_group) #18
  tail call void (ptr, i32, i32, ptr, ...) @ossl_statem_fatal(ptr noundef nonnull %0, i32 noundef 80, i32 noundef 524294, ptr noundef null) #18
  br label %33

18:                                               ; preds = %9
  %19 = tail call i32 @EVP_PKEY_keygen_init(ptr noundef nonnull %15) #18
  %20 = icmp slt i32 %19, 1
  br i1 %20, label %21, label %22

21:                                               ; preds = %18
  tail call void @ERR_new() #18
  tail call void @ERR_set_debug(ptr noundef nonnull @.str.2, i32 noundef 4924, ptr noundef nonnull @__func__.ssl_generate_pkey_group) #18
  tail call void (ptr, i32, i32, ptr, ...) @ossl_statem_fatal(ptr noundef nonnull %0, i32 noundef 80, i32 noundef 524294, ptr noundef null) #18
  br label %33

22:                                               ; preds = %18
  %23 = getelementptr inbounds nuw i8, ptr %6, i64 8
  %24 = load ptr, ptr %23, align 8, !tbaa !241
  %25 = tail call i32 @EVP_PKEY_CTX_set_group_name(ptr noundef nonnull %15, ptr noundef %24) #18
  %26 = icmp slt i32 %25, 1
  br i1 %26, label %27, label %28

27:                                               ; preds = %22
  tail call void @ERR_new() #18
  tail call void @ERR_set_debug(ptr noundef nonnull @.str.2, i32 noundef 4928, ptr noundef nonnull @__func__.ssl_generate_pkey_group) #18
  tail call void (ptr, i32, i32, ptr, ...) @ossl_statem_fatal(ptr noundef nonnull %0, i32 noundef 80, i32 noundef 524294, ptr noundef null) #18
  br label %33

28:                                               ; preds = %22
  %29 = call i32 @EVP_PKEY_keygen(ptr noundef nonnull %15, ptr noundef nonnull %3) #18
  %30 = icmp slt i32 %29, 1
  br i1 %30, label %31, label %33

31:                                               ; preds = %28
  call void @ERR_new() #18
  call void @ERR_set_debug(ptr noundef nonnull @.str.2, i32 noundef 4932, ptr noundef nonnull @__func__.ssl_generate_pkey_group) #18
  call void (ptr, i32, i32, ptr, ...) @ossl_statem_fatal(ptr noundef nonnull %0, i32 noundef 80, i32 noundef 524294, ptr noundef null) #18
  %32 = load ptr, ptr %3, align 8, !tbaa !77
  call void @EVP_PKEY_free(ptr noundef %32) #18
  store ptr null, ptr %3, align 8, !tbaa !77
  br label %33

33:                                               ; preds = %28, %31, %27, %21, %17, %8
  %.0 = phi ptr [ null, %8 ], [ null, %17 ], [ %15, %21 ], [ %15, %27 ], [ %15, %31 ], [ %15, %28 ]
  call void @EVP_PKEY_CTX_free(ptr noundef %.0) #18
  %34 = load ptr, ptr %3, align 8, !tbaa !77
  call void @llvm.lifetime.end.p0(i64 8, ptr nonnull %3) #18
  ret ptr %34
}